target datalayout = "e-m:e-p270:32:32-p271:32:32-p272:64:64-i64:64-i128:128-f80:128-n8:16:32:64-S128"
target triple = "x86_64-pc-linux-gnu"

%struct.AVChannelLayout = type { i32, i32, %union.anon.0, ptr }
%union.anon.0 = type { i64 }

@.str.2 = private unnamed_addr constant [29 x i8] c"Invalid channel layout '%s'\0A\00", align 1
@.str.3 = private unnamed_addr constant [47 x i8] c"Unknown channel layout '%s' is not supported.\0A\00", align 1

; Function Attrs: nounwind uwtable
define i32 @ff_parse_channel_layout(ptr noundef %0, ptr noundef %1, ptr noundef %2, ptr noundef %3) #0 {
  %5 = alloca i32, align 4
  %6 = alloca ptr, align 8
  %7 = alloca ptr, align 8
  %8 = alloca ptr, align 8
  %9 = alloca ptr, align 8
  %10 = alloca %struct.AVChannelLayout, align 8
  %11 = alloca i32, align 4
  %12 = alloca i32, align 4
  store ptr %0, ptr %6, align 8, !tbaa !63
  store ptr %1, ptr %7, align 8, !tbaa !57
  store ptr %2, ptr %8, align 8, !tbaa !59
  store ptr %3, ptr %9, align 8, !tbaa !60
  call void @llvm.lifetime.start.p0(i64 24, ptr %10) #6
  call void @llvm.memset.p0.i64(ptr align 8 %10, i8 0, i64 24, i1 false)
  call void @llvm.lifetime.start.p0(i64 4, ptr %11) #6
  %13 = load ptr, ptr %8, align 8, !tbaa !59
  %14 = call i32 @av_channel_layout_from_string(ptr noundef %10, ptr noundef %13)
  store i32 %14, ptr %11, align 4, !tbaa !9
  %15 = load i32, ptr %11, align 4, !tbaa !9
  %16 = icmp slt i32 %15, 0
  br i1 %16, label %17, label %20

17:                                               ; preds = %4
  %18 = load ptr, ptr %9, align 8, !tbaa !60
  %19 = load ptr, ptr %8, align 8, !tbaa !59
  call void (ptr, i32, ptr, ...) @av_log(ptr noundef %18, i32 noundef 16, ptr noundef @.str.2, ptr noundef %19)
  store i32 -22, ptr %5, align 4
  store i32 1, ptr %12, align 4
  br label %39

20:                                               ; preds = %4
  %21 = getelementptr inbounds nuw %struct.AVChannelLayout, ptr %10, i32 0, i32 0
  %22 = load i32, ptr %21, align 8, !tbaa !65
  %23 = icmp eq i32 %22, 0
  br i1 %23, label %24, label %30

24:                                               ; preds = %20
  %25 = load ptr, ptr %7, align 8, !tbaa !57
  %26 = icmp ne ptr %25, null
  br i1 %26, label %30, label %27

27:                                               ; preds = %24
  %28 = load ptr, ptr %9, align 8, !tbaa !60
  %29 = load ptr, ptr %8, align 8, !tbaa !59
  call void (ptr, i32, ptr, ...) @av_log(ptr noundef %28, i32 noundef 16, ptr noundef @.str.3, ptr noundef %29)
  store i32 -22, ptr %5, align 4
  store i32 1, ptr %12, align 4
  br label %39

30:                                               ; preds = %24, %20
  %31 = load ptr, ptr %6, align 8, !tbaa !63
  call void @llvm.memcpy.p0.p0.i64(ptr align 8 %31, ptr align 8 %10, i64 24, i1 false), !tbaa.struct !66
  %32 = load ptr, ptr %7, align 8, !tbaa !57
  %33 = icmp ne ptr %32, null
  br i1 %33, label %34, label %38

34:                                               ; preds = %30
  %35 = getelementptr inbounds nuw %struct.AVChannelLayout, ptr %10, i32 0, i32 1
  %36 = load i32, ptr %35, align 4, !tbaa !67
  %37 = load ptr, ptr %7, align 8, !tbaa !57
  store i32 %36, ptr %37, align 4, !tbaa !9
  br label %38

38:                                               ; preds = %34, %30
  store i32 0, ptr %5, align 4
  store i32 1, ptr %12, align 4
  br label %39

39:                                               ; preds = %38, %27, %17
  call void @llvm.lifetime.end.p0(i64 4, ptr %11) #6
  call void @llvm.lifetime.end.p0(i64 24, ptr %10) #6
  %40 = load i32, ptr %5, align 4
  ret i32 %40
}