; Function Attrs: nounwind uwtable
define range(i32 -22, 1) i32 @ff_parse_channel_layout(ptr noundef writeonly captures(none) %0, ptr noundef writeonly captures(address_is_null) %1, ptr noundef %2, ptr noundef %3) local_unnamed_addr #0 {
  %5 = alloca %struct.AVChannelLayout, align 8
  call void @llvm.lifetime.start.p0(i64 24, ptr nonnull %5) #5
  call void @llvm.memset.p0.i64(ptr noundef nonnull align 8 dereferenceable(24) %5, i8 0, i64 24, i1 false)
  %6 = call i32 @av_channel_layout_from_string(ptr noundef nonnull %5, ptr noundef %2) #5
  %7 = icmp slt i32 %6, 0
  br i1 %7, label %8, label %9

8:                                                ; preds = %4
  call void (ptr, i32, ptr, ...) @av_log(ptr noundef %3, i32 noundef 16, ptr noundef nonnull @.str.2, ptr noundef %2) #5
  br label %18

9:                                                ; preds = %4
  %10 = load i32, ptr %5, align 8, !tbaa !56
  %11 = icmp ne i32 %10, 0
  %12 = icmp ne ptr %1, null
  %or.cond = or i1 %12, %11
  br i1 %or.cond, label %14, label %13

13:                                               ; preds = %9
  call void (ptr, i32, ptr, ...) @av_log(ptr noundef %3, i32 noundef 16, ptr noundef nonnull @.str.3, ptr noundef %2) #5
  br label %18

14:                                               ; preds = %9
  call void @llvm.memcpy.p0.p0.i64(ptr noundef nonnull align 8 dereferenceable(24) %0, ptr noundef nonnull align 8 dereferenceable(24) %5, i64 24, i1 false), !tbaa.struct !57
  br i1 %12, label %15, label %18

15:                                               ; preds = %14
  %16 = getelementptr inbounds nuw i8, ptr %5, i64 4
  %17 = load i32, ptr %16, align 4, !tbaa !59
  store i32 %17, ptr %1, align 4, !tbaa !45
  br label %18

18:                                               ; preds = %14, %15, %13, %8
  %.0 = phi i32 [ -22, %8 ], [ -22, %13 ], [ 0, %15 ], [ 0, %14 ]
  call void @llvm.lifetime.end.p0(i64 24, ptr nonnull %5) #5
  ret i32 %.0
}